; Function Attrs: mustprogress uwtable
define noundef ptr @_ZN7rocksdb16WritePreparedTxn11GetIteratorERKNS_11ReadOptionsEPNS_18ColumnFamilyHandleE(ptr noundef nonnull align 8 dereferenceable(664) %0, ptr noundef nonnull align 8 dereferenceable(168) %1, ptr noundef %2) unnamed_addr #4 align 2 {
  %4 = getelementptr inbounds nuw i8, ptr %0, i64 648
  %5 = load ptr, ptr %4, align 8, !tbaa !20
  %6 = load ptr, ptr %5, align 8, !tbaa !18
  %7 = getelementptr inbounds nuw i8, ptr %6, i64 456
  %8 = load ptr, ptr %7, align 8
  %9 = tail call noundef ptr %8(ptr noundef nonnull align 8 dereferenceable(1392) %5, ptr noundef nonnull align 8 dereferenceable(168) %1, ptr noundef %2)
  %10 = getelementptr inbounds nuw i8, ptr %0, i64 184
  %11 = tail call noundef ptr @_ZN7rocksdb19WriteBatchWithIndex19NewIteratorWithBaseEPNS_18ColumnFamilyHandleEPNS_8IteratorEPKNS_11ReadOptionsE(ptr noundef nonnull align 8 dereferenceable(16) %10, ptr noundef %2, ptr noundef %9, ptr noundef nonnull %1)
  ret ptr %11
}